target datalayout = "e-m:e-p270:32:32-p271:32:32-p272:64:64-i64:64-i128:128-f80:128-n8:16:32:64-S128"
target triple = "x86_64-pc-linux-gnu"

%struct.dyn_ctx = type { %struct.dyn_chunk, %struct.dyn_chunk }
%struct.dyn_chunk = type { i64, ptr }

; Function Attrs: alwaysinline nounwind uwtable
define internal void @dyn_chunk_list_remove(ptr noundef %0, ptr noundef %1) #4 {
  %3 = alloca ptr, align 8
  %4 = alloca ptr, align 8
  %5 = alloca ptr, align 8
  %6 = alloca ptr, align 8
  %7 = alloca i32, align 4
  store ptr %0, ptr %3, align 8, !tbaa !36
  store ptr %1, ptr %4, align 8, !tbaa !36
  call void @llvm.lifetime.start.p0(i64 8, ptr %5) #13
  %8 = load ptr, ptr %3, align 8, !tbaa !36
  store ptr %8, ptr %5, align 8, !tbaa !36
  call void @llvm.lifetime.start.p0(i64 8, ptr %6) #13
  %9 = load ptr, ptr %5, align 8, !tbaa !36
  %10 = getelementptr inbounds nuw %struct.dyn_chunk, ptr %9, i32 0, i32 1
  %11 = load ptr, ptr %10, align 8, !tbaa !38
  store ptr %11, ptr %6, align 8, !tbaa !36
  br label %12

12:                                               ; preds = %29, %2
  %13 = load ptr, ptr %6, align 8, !tbaa !36
  %14 = icmp ne ptr %13, null
  br i1 %14, label %15, label %33

15:                                               ; preds = %12
  %16 = load ptr, ptr %6, align 8, !tbaa !36
  %17 = load ptr, ptr %4, align 8, !tbaa !36
  %18 = icmp eq ptr %16, %17
  br i1 %18, label %19, label %27

19:                                               ; preds = %15
  %20 = load ptr, ptr %6, align 8, !tbaa !36
  %21 = getelementptr inbounds nuw %struct.dyn_chunk, ptr %20, i32 0, i32 1
  %22 = load ptr, ptr %21, align 8, !tbaa !38
  %23 = load ptr, ptr %5, align 8, !tbaa !36
  %24 = getelementptr inbounds nuw %struct.dyn_chunk, ptr %23, i32 0, i32 1
  store ptr %22, ptr %24, align 8, !tbaa !38
  %25 = load ptr, ptr %6, align 8, !tbaa !36
  %26 = getelementptr inbounds nuw %struct.dyn_chunk, ptr %25, i32 0, i32 1
  store ptr null, ptr %26, align 8, !tbaa !38
  store i32 1, ptr %7, align 4
  br label %34

27:                                               ; preds = %15
  %28 = load ptr, ptr %6, align 8, !tbaa !36
  store ptr %28, ptr %5, align 8, !tbaa !36
  br label %29

29:                                               ; preds = %27
  %30 = load ptr, ptr %6, align 8, !tbaa !36
  %31 = getelementptr inbounds nuw %struct.dyn_chunk, ptr %30, i32 0, i32 1
  %32 = load ptr, ptr %31, align 8, !tbaa !38
  store ptr %32, ptr %6, align 8, !tbaa !36
  br label %12, !llvm.loop !249

33:                                               ; preds = %12
  store i32 0, ptr %7, align 4
  br label %34

34:                                               ; preds = %33, %19
  call void @llvm.lifetime.end.p0(i64 8, ptr %6) #13
  call void @llvm.lifetime.end.p0(i64 8, ptr %5) #13
  %35 = load i32, ptr %7, align 4
  switch i32 %35, label %37 [
    i32 0, label %36
    i32 1, label %36
  ]

36:                                               ; preds = %34, %34
  ret void

37:                                               ; preds = %34
  unreachable
}

; Function Attrs: nounwind uwtable
define internal void @dyn_free(ptr noundef %0, ptr noundef %1) #0 {
  %3 = alloca ptr, align 8
  %4 = alloca ptr, align 8
  %5 = alloca ptr, align 8
  %6 = alloca ptr, align 8
  %7 = alloca ptr, align 8
  store ptr %0, ptr %3, align 8, !tbaa !9
  store ptr %1, ptr %4, align 8, !tbaa !9
  call void @llvm.lifetime.start.p0(i64 8, ptr %5) #13
  %8 = load ptr, ptr %3, align 8, !tbaa !9
  store ptr %8, ptr %5, align 8, !tbaa !9
  call void @llvm.lifetime.start.p0(i64 8, ptr %6) #13
  %9 = load ptr, ptr %4, align 8, !tbaa !9
  %10 = getelementptr inbounds %struct.dyn_chunk, ptr %9, i64 -1
  store ptr %10, ptr %6, align 8, !tbaa !36
  call void @llvm.lifetime.start.p0(i64 8, ptr %7) #13
  %11 = load ptr, ptr %5, align 8, !tbaa !9
  %12 = getelementptr inbounds nuw %struct.dyn_ctx, ptr %11, i32 0, i32 1
  %13 = load ptr, ptr %6, align 8, !tbaa !36
  call void @dyn_chunk_list_remove(ptr noundef %12, ptr noundef %13)
  %14 = load ptr, ptr %5, align 8, !tbaa !9
  %15 = getelementptr inbounds nuw %struct.dyn_ctx, ptr %14, i32 0, i32 0
  store ptr %15, ptr %7, align 8, !tbaa !36
  br label %16

16:                                               ; preds = %44, %2
  %17 = load ptr, ptr %7, align 8, !tbaa !36
  %18 = icmp ne ptr %17, null
  br i1 %18, label %19, label %48

19:                                               ; preds = %16
  %20 = load ptr, ptr %7, align 8, !tbaa !36
  %21 = getelementptr inbounds nuw %struct.dyn_chunk, ptr %20, i32 0, i32 1
  %22 = load ptr, ptr %21, align 8, !tbaa !38
  %23 = icmp ne ptr %22, null
  br i1 %23, label %24, label %34

24:                                               ; preds = %19
  %25 = load ptr, ptr %7, align 8, !tbaa !36
  %26 = getelementptr inbounds nuw %struct.dyn_chunk, ptr %25, i32 0, i32 1
  %27 = load ptr, ptr %26, align 8, !tbaa !38
  %28 = getelementptr inbounds nuw %struct.dyn_chunk, ptr %27, i32 0, i32 0
  %29 = load i64, ptr %28, align 8, !tbaa !37
  %30 = load ptr, ptr %6, align 8, !tbaa !36
  %31 = getelementptr inbounds nuw %struct.dyn_chunk, ptr %30, i32 0, i32 0
  %32 = load i64, ptr %31, align 8, !tbaa !37
  %33 = icmp uge i64 %29, %32
  br i1 %33, label %34, label %43

34:                                               ; preds = %24, %19
  %35 = load ptr, ptr %7, align 8, !tbaa !36
  %36 = getelementptr inbounds nuw %struct.dyn_chunk, ptr %35, i32 0, i32 1
  %37 = load ptr, ptr %36, align 8, !tbaa !38
  %38 = load ptr, ptr %6, align 8, !tbaa !36
  %39 = getelementptr inbounds nuw %struct.dyn_chunk, ptr %38, i32 0, i32 1
  store ptr %37, ptr %39, align 8, !tbaa !38
  %40 = load ptr, ptr %6, align 8, !tbaa !36
  %41 = load ptr, ptr %7, align 8, !tbaa !36
  %42 = getelementptr inbounds nuw %struct.dyn_chunk, ptr %41, i32 0, i32 1
  store ptr %40, ptr %42, align 8, !tbaa !38
  br label %48

43:                                               ; preds = %24
  br label %44

44:                                               ; preds = %43
  %45 = load ptr, ptr %7, align 8, !tbaa !36
  %46 = getelementptr inbounds nuw %struct.dyn_chunk, ptr %45, i32 0, i32 1
  %47 = load ptr, ptr %46, align 8, !tbaa !38
  store ptr %47, ptr %7, align 8, !tbaa !36
  br label %16, !llvm.loop !39

48:                                               ; preds = %34, %16
  call void @llvm.lifetime.end.p0(i64 8, ptr %7) #13
  call void @llvm.lifetime.end.p0(i64 8, ptr %6) #13
  call void @llvm.lifetime.end.p0(i64 8, ptr %5) #13
  ret void
}