; Function Attrs: nofree norecurse nosync nounwind memory(readwrite, inaccessiblemem: none) uwtable
define internal void @dyn_free(ptr noundef captures(address) %0, ptr noundef %1) #4 {
  %3 = getelementptr inbounds i8, ptr %1, i64 -16
  %4 = getelementptr inbounds nuw i8, ptr %0, i64 16
  br label %5

5:                                                ; preds = %6, %2
  %.010.i = phi ptr [ %4, %2 ], [ %.0.i, %6 ]
  %.0.in.i = getelementptr inbounds nuw i8, ptr %.010.i, i64 8
  %.0.i = load ptr, ptr %.0.in.i, align 8, !tbaa !34
  %.not.i = icmp eq ptr %.0.i, null
  br i1 %.not.i, label %dyn_chunk_list_remove.exit.preheader, label %6

6:                                                ; preds = %5
  %7 = icmp eq ptr %.0.i, %3
  br i1 %7, label %8, label %5, !llvm.loop !35

8:                                                ; preds = %6
  %.0.in.i.le = getelementptr inbounds nuw i8, ptr %.010.i, i64 8
  %9 = getelementptr inbounds nuw i8, ptr %.0.i, i64 8
  %10 = load ptr, ptr %9, align 8, !tbaa !34
  store ptr %10, ptr %.0.in.i.le, align 8, !tbaa !34
  store ptr null, ptr %9, align 8, !tbaa !34
  br label %dyn_chunk_list_remove.exit.preheader

dyn_chunk_list_remove.exit.preheader:             ; preds = %5, %8
  br label %dyn_chunk_list_remove.exit

dyn_chunk_list_remove.exit:                       ; preds = %dyn_chunk_list_remove.exit.preheader, %14
  %.0 = phi ptr [ %13, %14 ], [ %0, %dyn_chunk_list_remove.exit.preheader ]
  %.not = icmp eq ptr %.0, null
  br i1 %.not, label %.loopexit, label %11

11:                                               ; preds = %dyn_chunk_list_remove.exit
  %12 = getelementptr inbounds nuw i8, ptr %.0, i64 8
  %13 = load ptr, ptr %12, align 8, !tbaa !34
  %.not15 = icmp eq ptr %13, null
  br i1 %.not15, label %17, label %14

14:                                               ; preds = %11
  %15 = load i64, ptr %13, align 8, !tbaa !33
  %16 = load i64, ptr %3, align 8, !tbaa !33
  %.not16 = icmp ult i64 %15, %16
  br i1 %.not16, label %dyn_chunk_list_remove.exit, label %17, !llvm.loop !36

17:                                               ; preds = %14, %11
  %18 = getelementptr inbounds nuw i8, ptr %.0, i64 8
  %19 = getelementptr inbounds i8, ptr %1, i64 -8
  store ptr %13, ptr %19, align 8, !tbaa !34
  store ptr %3, ptr %18, align 8, !tbaa !34
  br label %.loopexit

.loopexit:                                        ; preds = %dyn_chunk_list_remove.exit, %17
  ret void
}